; Function Attrs: nounwind uwtable
define internal fastcc range(i32 0, 2) i32 @validate_name(ptr noundef %0) unnamed_addr #0 {
  br label %3

2:                                                ; preds = %3
  %indvars.iv.next = add nuw nsw i64 %indvars.iv, 1
  %.not = icmp eq i64 %indvars.iv.next, 3
  br i1 %.not, label %.loopexit, label %3, !llvm.loop !91

3:                                                ; preds = %1, %2
  %indvars.iv = phi i64 [ 0, %1 ], [ %indvars.iv.next, %2 ]
  %4 = getelementptr [4 x ptr], ptr @validate_name.forbidden, i64 0, i64 %indvars.iv
  %5 = load ptr, ptr %4, align 8, !tbaa !92
  %6 = tail call i32 @_PyUnicode_EqualToASCIIString(ptr noundef %0, ptr noundef %5) #5
  %.not9 = icmp eq i32 %6, 0
  br i1 %.not9, label %2, label %7

7:                                                ; preds = %3
  %8 = load ptr, ptr @PyExc_ValueError, align 8, !tbaa !33
  %9 = tail call ptr (ptr, ptr, ...) @PyErr_Format(ptr noundef %8, ptr noundef nonnull @.str.41, ptr noundef %5) #5
  br label %.loopexit

.loopexit:                                        ; preds = %2, %7
  %spec.select = zext i1 %.not9 to i32
  ret i32 %spec.select
}